target datalayout = "e-m:e-p270:32:32-p271:32:32-p272:64:64-i64:64-i128:128-f80:128-n8:16:32:64-S128"
target triple = "x86_64-pc-linux-gnu"

%struct.uv_tcp_s = type { ptr, ptr, i32, ptr, [2 x ptr], %union.anon, ptr, i32, i64, ptr, ptr, ptr, ptr, %struct.uv__io_s, [2 x ptr], [2 x ptr], ptr, i32, i32, ptr }
%union.anon = type { [4 x ptr] }
%struct.uv__io_s = type { ptr, [2 x ptr], [2 x ptr], i32, i32, i32 }

; Function Attrs: nounwind uwtable
define dso_local i32 @uv_tcp_getsockname(ptr noundef %0, ptr noundef %1, ptr noundef %2) #0 {
  %4 = alloca i32, align 4
  %5 = alloca ptr, align 8
  %6 = alloca ptr, align 8
  %7 = alloca ptr, align 8
  store ptr %0, ptr %5, align 8, !tbaa !9
  store ptr %1, ptr %6, align 8, !tbaa !33
  store ptr %2, ptr %7, align 8, !tbaa !48
  %8 = load ptr, ptr %5, align 8, !tbaa !9
  %9 = getelementptr inbounds nuw %struct.uv_tcp_s, ptr %8, i32 0, i32 17
  %10 = load i32, ptr %9, align 8, !tbaa !37
  %11 = icmp ne i32 %10, 0
  br i1 %11, label %12, label %16

12:                                               ; preds = %3
  %13 = load ptr, ptr %5, align 8, !tbaa !9
  %14 = getelementptr inbounds nuw %struct.uv_tcp_s, ptr %13, i32 0, i32 17
  %15 = load i32, ptr %14, align 8, !tbaa !37
  store i32 %15, ptr %4, align 4
  br label %21

16:                                               ; preds = %3
  %17 = load ptr, ptr %5, align 8, !tbaa !9
  %18 = load ptr, ptr %6, align 8, !tbaa !33
  %19 = load ptr, ptr %7, align 8, !tbaa !48
  %20 = call i32 @uv__getsockpeername(ptr noundef %17, ptr noundef @getsockname, ptr noundef %18, ptr noundef %19)
  store i32 %20, ptr %4, align 4
  br label %21

21:                                               ; preds = %16, %12
  %22 = load i32, ptr %4, align 4
  ret i32 %22
}